target datalayout = "e-m:e-p270:32:32-p271:32:32-p272:64:64-i64:64-i128:128-f80:128-n8:16:32:64-S128"
target triple = "x86_64-unknown-linux-gnu"

%"class.Imf_3_2::RgbaOutputFile" = type { ptr, ptr, ptr }

; Function Attrs: mustprogress uwtable
define noundef i32 @_ZNK7Imf_3_214RgbaOutputFile11compressionEv(ptr noundef nonnull align 8 dereferenceable(24) %this) #4 align 2 {
entry:
  %this.addr = alloca ptr, align 8
  store ptr %this, ptr %this.addr, align 8
  %this1 = load ptr, ptr %this.addr, align 8
  %_outputFile = getelementptr inbounds %"class.Imf_3_2::RgbaOutputFile", ptr %this1, i32 0, i32 1
  %0 = load ptr, ptr %_outputFile, align 8
  %call = call noundef nonnull align 8 dereferenceable(49) ptr @_ZNK7Imf_3_210OutputFile6headerEv(ptr noundef nonnull align 8 dereferenceable(16) %0)
  %call2 = call noundef nonnull align 4 dereferenceable(4) ptr @_ZNK7Imf_3_26Header11compressionEv(ptr noundef nonnull align 8 dereferenceable(49) %call)
  %1 = load i32, ptr %call2, align 4
  ret i32 %1
}